; Function Attrs: mustprogress uwtable
define internal fastcc void @_ZN6google8protobuf8compiler4javaL19WriteDocCommentBodyINS0_15FieldDescriptorEEEvPNS0_2io7PrinterEPKT_b(ptr noundef %printer, ptr noundef %descriptor, i1 noundef zeroext %kdoc) unnamed_addr #3 personality ptr @__gxx_personality_v0 {
entry:
  %location = alloca %"struct.google::protobuf::SourceLocation", align 8
  %leading_comments.i = getelementptr inbounds nuw i8, ptr %location, i64 16
  call void @_ZNSt7__cxx1112basic_stringIcSt11char_traitsIcESaIcEEC1Ev(ptr noundef nonnull align 8 dereferenceable(32) %leading_comments.i) #22
  %trailing_comments.i = getelementptr inbounds nuw i8, ptr %location, i64 48
  call void @_ZNSt7__cxx1112basic_stringIcSt11char_traitsIcESaIcEEC1Ev(ptr noundef nonnull align 8 dereferenceable(32) %trailing_comments.i) #22
  %leading_detached_comments.i = getelementptr inbounds nuw i8, ptr %location, i64 80
  call void @llvm.memset.p0.i64(ptr noundef nonnull align 8 dereferenceable(24) %leading_detached_comments.i, i8 0, i64 24, i1 false)
  %call = invoke noundef zeroext i1 @_ZNK6google8protobuf15FieldDescriptor17GetSourceLocationEPNS0_14SourceLocationE(ptr noundef nonnull align 8 dereferenceable(88) %descriptor, ptr noundef nonnull %location)
          to label %invoke.cont unwind label %lpad

invoke.cont:                                      ; preds = %entry
  br i1 %call, label %if.then, label %if.end

if.then:                                          ; preds = %invoke.cont
  invoke fastcc void @_ZN6google8protobuf8compiler4javaL30WriteDocCommentBodyForLocationEPNS0_2io7PrinterERKNS0_14SourceLocationEb(ptr noundef %printer, ptr noundef nonnull align 8 dereferenceable(104) %location, i1 noundef zeroext %kdoc)
          to label %if.end unwind label %lpad

lpad:                                             ; preds = %if.then, %entry
  %0 = landingpad { ptr, i32 }
          cleanup
  call void @_ZN6google8protobuf14SourceLocationD2Ev(ptr noundef nonnull align 8 dereferenceable(104) %location) #22
  resume { ptr, i32 } %0

if.end:                                           ; preds = %if.then, %invoke.cont
  %1 = load ptr, ptr %leading_detached_comments.i, align 8
  %_M_finish.i.i = getelementptr inbounds nuw i8, ptr %location, i64 88
  %2 = load ptr, ptr %_M_finish.i.i, align 8
  %cmp.not3.i.i.i.i.i = icmp eq ptr %1, %2
  br i1 %cmp.not3.i.i.i.i.i, label %invoke.cont.i.i, label %for.body.i.i.i.i.i

for.body.i.i.i.i.i:                               ; preds = %if.end, %for.body.i.i.i.i.i
  %__first.addr.04.i.i.i.i.i = phi ptr [ %incdec.ptr.i.i.i.i.i, %for.body.i.i.i.i.i ], [ %1, %if.end ]
  call void @_ZNSt7__cxx1112basic_stringIcSt11char_traitsIcESaIcEED1Ev(ptr noundef nonnull align 8 dereferenceable(32) %__first.addr.04.i.i.i.i.i) #22
  %incdec.ptr.i.i.i.i.i = getelementptr inbounds nuw i8, ptr %__first.addr.04.i.i.i.i.i, i64 32
  %cmp.not.i.i.i.i.i = icmp eq ptr %incdec.ptr.i.i.i.i.i, %2
  br i1 %cmp.not.i.i.i.i.i, label %invoke.contthread-pre-split.i.i, label %for.body.i.i.i.i.i, !llvm.loop !6

invoke.contthread-pre-split.i.i:                  ; preds = %for.body.i.i.i.i.i
  %.pr.i.i = load ptr, ptr %leading_detached_comments.i, align 8
  br label %invoke.cont.i.i

invoke.cont.i.i:                                  ; preds = %invoke.contthread-pre-split.i.i, %if.end
  %3 = phi ptr [ %.pr.i.i, %invoke.contthread-pre-split.i.i ], [ %1, %if.end ]
  %tobool.not.i.i.i.i = icmp eq ptr %3, null
  br i1 %tobool.not.i.i.i.i, label %_ZN6google8protobuf14SourceLocationD2Ev.exit, label %if.then.i.i.i.i

if.then.i.i.i.i:                                  ; preds = %invoke.cont.i.i
  call void @_ZdlPv(ptr noundef nonnull %3) #23
  br label %_ZN6google8protobuf14SourceLocationD2Ev.exit

_ZN6google8protobuf14SourceLocationD2Ev.exit:     ; preds = %invoke.cont.i.i, %if.then.i.i.i.i
  call void @_ZNSt7__cxx1112basic_stringIcSt11char_traitsIcESaIcEED1Ev(ptr noundef nonnull align 8 dereferenceable(32) %trailing_comments.i) #22
  call void @_ZNSt7__cxx1112basic_stringIcSt11char_traitsIcESaIcEED1Ev(ptr noundef nonnull align 8 dereferenceable(32) %leading_comments.i) #22
  ret void
}